; Function Attrs: mustprogress nounwind uwtable
define void @_ZN32pxrInternal_v0_24__pxrReserved__24PcpErrorCapacityExceededD2Ev(ptr noundef nonnull align 8 dereferenceable(104) %0) unnamed_addr #2 align 2 personality ptr @__gxx_personality_v0 {
  store ptr getelementptr inbounds inrange(-16, 24) (i8, ptr @_ZTVN32pxrInternal_v0_24__pxrReserved__12PcpErrorBaseE, i64 16), ptr %0, align 8
  %2 = getelementptr inbounds i8, ptr %0, i64 96
  %3 = load i32, ptr %2, align 8
  %.not.i.i.i.i = icmp eq i32 %3, 0
  br i1 %.not.i.i.i.i, label %_ZN32pxrInternal_v0_24__pxrReserved__12PcpErrorBaseD2Ev.exit, label %4

4:                                                ; preds = %1
  %5 = and i32 %3, 255
  %6 = lshr i32 %3, 8
  %7 = zext nneg i32 %5 to i64
  %8 = getelementptr inbounds [257 x ptr], ptr @_ZN32pxrInternal_v0_24__pxrReserved__8Sdf_PoolINS_15Sdf_PathPrimTagELj24ELj8ELj16384EE13_regionStartsE, i64 0, i64 %7
  %9 = load ptr, ptr %8, align 8
  %10 = mul nuw nsw i32 %6, 24
  %11 = zext nneg i32 %10 to i64
  %12 = getelementptr inbounds i8, ptr %9, i64 %11
  %13 = getelementptr inbounds nuw i8, ptr %12, i64 8
  %14 = atomicrmw sub ptr %13, i32 1 seq_cst, align 4
  %15 = and i32 %14, 2147483647
  %16 = icmp eq i32 %15, 1
  br i1 %16, label %17, label %_ZN32pxrInternal_v0_24__pxrReserved__12PcpErrorBaseD2Ev.exit

17:                                               ; preds = %4
  invoke void @_ZNK32pxrInternal_v0_24__pxrReserved__12Sdf_PathNode8_DestroyEv(ptr noundef nonnull align 8 dereferenceable(16) %12)
          to label %_ZN32pxrInternal_v0_24__pxrReserved__12PcpErrorBaseD2Ev.exit unwind label %18

18:                                               ; preds = %17
  %19 = landingpad { ptr, i32 }
          catch ptr null
  %20 = extractvalue { ptr, i32 } %19, 0
  tail call void @__clang_call_terminate(ptr %20) #18
  unreachable

_ZN32pxrInternal_v0_24__pxrReserved__12PcpErrorBaseD2Ev.exit: ; preds = %1, %4, %17
  %21 = getelementptr inbounds nuw i8, ptr %0, i64 16
  tail call void @_ZN32pxrInternal_v0_24__pxrReserved__23PcpLayerStackIdentifierD2Ev(ptr noundef nonnull align 8 dereferenceable(80) %21) #19
  ret void
}